target datalayout = "e-m:e-p270:32:32-p271:32:32-p272:64:64-i64:64-i128:128-f80:128-n8:16:32:64-S128"
target triple = "x86_64-pc-linux-gnu"

%struct.GCstr = type { %struct.GCRef, i8, i8, i8, i8, i32, i32, i32 }
%struct.GCRef = type { i64 }
%struct.CTState = type { ptr, i32, i32, ptr, ptr, ptr, %struct.CCallback, [128 x i16] }
%struct.CCallback = type { [8 x %union.FPRCBArg], [8 x i64], ptr, ptr, ptr, i32, i32, i32 }
%union.FPRCBArg = type { double }
%struct.CPState = type { i32, i32, %struct.CPValue, ptr, ptr, ptr, %struct.SBuf, ptr, ptr, ptr, ptr, i32, i32, i32, i32, [7 x i8], i8 }
%struct.CPValue = type { %union.anon, i32 }
%union.anon = type { i32 }
%struct.SBuf = type { ptr, ptr, ptr, %struct.MRef }
%struct.MRef = type { i64 }
%struct.CType = type { i32, i32, i16, i16, %struct.GCRef }

; Function Attrs: nounwind uwtable
define internal void @cp_expr_unary(ptr noundef %0, ptr noundef %1) #0 {
  %3 = alloca ptr, align 8
  %4 = alloca ptr, align 8
  store ptr %0, ptr %3, align 8, !tbaa !20
  store ptr %1, ptr %4, align 8, !tbaa !129
  %5 = load ptr, ptr %3, align 8, !tbaa !20
  %6 = getelementptr inbounds nuw %struct.CPState, ptr %5, i32 0, i32 12
  %7 = load i32, ptr %6, align 4, !tbaa !54
  %8 = add nsw i32 %7, 1
  store i32 %8, ptr %6, align 4, !tbaa !54
  %9 = icmp sgt i32 %8, 20
  br i1 %9, label %10, label %12

10:                                               ; preds = %2
  %11 = load ptr, ptr %3, align 8, !tbaa !20
  call void @cp_err(ptr noundef %11, i32 noundef 2216) #15
  unreachable

12:                                               ; preds = %2
  %13 = load ptr, ptr %3, align 8, !tbaa !20
  %14 = load ptr, ptr %4, align 8, !tbaa !129
  call void @cp_expr_prefix(ptr noundef %13, ptr noundef %14)
  %15 = load ptr, ptr %3, align 8, !tbaa !20
  %16 = load ptr, ptr %4, align 8, !tbaa !129
  call void @cp_expr_postfix(ptr noundef %15, ptr noundef %16)
  %17 = load ptr, ptr %3, align 8, !tbaa !20
  %18 = getelementptr inbounds nuw %struct.CPState, ptr %17, i32 0, i32 12
  %19 = load i32, ptr %18, align 4, !tbaa !54
  %20 = add nsw i32 %19, -1
  store i32 %20, ptr %18, align 4, !tbaa !54
  ret void
}

; Function Attrs: nounwind uwtable
define internal void @cp_expr_sub(ptr noundef %0, ptr noundef %1, i32 noundef %2) #0 {
  %4 = alloca ptr, align 8
  %5 = alloca ptr, align 8
  %6 = alloca i32, align 4
  store ptr %0, ptr %4, align 8, !tbaa !20
  store ptr %1, ptr %5, align 8, !tbaa !129
  store i32 %2, ptr %6, align 4, !tbaa !11
  %7 = load ptr, ptr %4, align 8, !tbaa !20
  %8 = load ptr, ptr %5, align 8, !tbaa !129
  call void @cp_expr_unary(ptr noundef %7, ptr noundef %8)
  %9 = load ptr, ptr %4, align 8, !tbaa !20
  %10 = load ptr, ptr %5, align 8, !tbaa !129
  %11 = load i32, ptr %6, align 4, !tbaa !11
  call void @cp_expr_infix(ptr noundef %9, ptr noundef %10, i32 noundef %11)
  ret void
}

; Function Attrs: nounwind uwtable
define internal void @cp_check(ptr noundef %0, i32 noundef %1) #0 {
  %3 = alloca ptr, align 8
  %4 = alloca i32, align 4
  store ptr %0, ptr %3, align 8, !tbaa !20
  store i32 %1, ptr %4, align 4, !tbaa !11
  %5 = load ptr, ptr %3, align 8, !tbaa !20
  %6 = getelementptr inbounds nuw %struct.CPState, ptr %5, i32 0, i32 1
  %7 = load i32, ptr %6, align 4, !tbaa !56
  %8 = load i32, ptr %4, align 4, !tbaa !11
  %9 = icmp ne i32 %7, %8
  br i1 %9, label %10, label %13

10:                                               ; preds = %2
  %11 = load ptr, ptr %3, align 8, !tbaa !20
  %12 = load i32, ptr %4, align 4, !tbaa !11
  call void @cp_err_token(ptr noundef %11, i32 noundef %12) #15
  unreachable

13:                                               ; preds = %2
  %14 = load ptr, ptr %3, align 8, !tbaa !20
  %15 = call i32 @cp_next(ptr noundef %14)
  ret void
}

; Function Attrs: nounwind uwtable
define internal void @cp_expr_comma(ptr noundef %0, ptr noundef %1) #0 {
  %3 = alloca ptr, align 8
  %4 = alloca ptr, align 8
  store ptr %0, ptr %3, align 8, !tbaa !20
  store ptr %1, ptr %4, align 8, !tbaa !129
  br label %5

5:                                                ; preds = %8, %2
  %6 = load ptr, ptr %3, align 8, !tbaa !20
  %7 = load ptr, ptr %4, align 8, !tbaa !129
  call void @cp_expr_sub(ptr noundef %6, ptr noundef %7, i32 noundef 0)
  br label %8

8:                                                ; preds = %5
  %9 = load ptr, ptr %3, align 8, !tbaa !20
  %10 = call i32 @cp_opt(ptr noundef %9, i32 noundef 44)
  %11 = icmp ne i32 %10, 0
  br i1 %11, label %5, label %12, !llvm.loop !135

12:                                               ; preds = %8
  ret void
}

; Function Attrs: nounwind uwtable
define internal i32 @cp_opt(ptr noundef %0, i32 noundef %1) #0 {
  %3 = alloca i32, align 4
  %4 = alloca ptr, align 8
  %5 = alloca i32, align 4
  store ptr %0, ptr %4, align 8, !tbaa !20
  store i32 %1, ptr %5, align 4, !tbaa !11
  %6 = load ptr, ptr %4, align 8, !tbaa !20
  %7 = getelementptr inbounds nuw %struct.CPState, ptr %6, i32 0, i32 1
  %8 = load i32, ptr %7, align 4, !tbaa !56
  %9 = load i32, ptr %5, align 4, !tbaa !11
  %10 = icmp eq i32 %8, %9
  br i1 %10, label %11, label %14

11:                                               ; preds = %2
  %12 = load ptr, ptr %4, align 8, !tbaa !20
  %13 = call i32 @cp_next(ptr noundef %12)
  store i32 1, ptr %3, align 4
  br label %15

14:                                               ; preds = %2
  store i32 0, ptr %3, align 4
  br label %15

15:                                               ; preds = %14, %11
  %16 = load i32, ptr %3, align 4
  ret i32 %16
}

; Function Attrs: nounwind uwtable
define internal void @cp_expr_postfix(ptr noundef %0, ptr noundef %1) #0 {
  %3 = alloca ptr, align 8
  %4 = alloca ptr, align 8
  %5 = alloca ptr, align 8
  %6 = alloca %struct.CPValue, align 4
  %7 = alloca i32, align 4
  %8 = alloca ptr, align 8
  %9 = alloca ptr, align 8
  %10 = alloca i32, align 4
  store ptr %0, ptr %3, align 8, !tbaa !20
  store ptr %1, ptr %4, align 8, !tbaa !129
  br label %11

11:                                               ; preds = %182, %2
  call void @llvm.lifetime.start.p0(i64 8, ptr %5) #13
  %12 = load ptr, ptr %3, align 8, !tbaa !20
  %13 = call i32 @cp_opt(ptr noundef %12, i32 noundef 91)
  %14 = icmp ne i32 %13, 0
  br i1 %14, label %15, label %51

15:                                               ; preds = %11
  call void @llvm.lifetime.start.p0(i64 8, ptr %6) #13
  %16 = load ptr, ptr %3, align 8, !tbaa !20
  call void @cp_expr_comma(ptr noundef %16, ptr noundef %6)
  %17 = load ptr, ptr %3, align 8, !tbaa !20
  %18 = getelementptr inbounds nuw %struct.CPState, ptr %17, i32 0, i32 8
  %19 = load ptr, ptr %18, align 8, !tbaa !22
  %20 = load ptr, ptr %4, align 8, !tbaa !129
  %21 = getelementptr inbounds nuw %struct.CPValue, ptr %20, i32 0, i32 1
  %22 = load i32, ptr %21, align 4, !tbaa !122
  %23 = call ptr @lj_ctype_rawref(ptr noundef %19, i32 noundef %22)
  store ptr %23, ptr %5, align 8, !tbaa !32
  %24 = load ptr, ptr %5, align 8, !tbaa !32
  %25 = getelementptr inbounds nuw %struct.CType, ptr %24, i32 0, i32 0
  %26 = load i32, ptr %25, align 8, !tbaa !60
  %27 = lshr i32 %26, 28
  %28 = lshr i32 %27, 1
  %29 = icmp eq i32 %28, 1
  br i1 %29, label %47, label %30

30:                                               ; preds = %15
  %31 = load ptr, ptr %3, align 8, !tbaa !20
  %32 = getelementptr inbounds nuw %struct.CPState, ptr %31, i32 0, i32 8
  %33 = load ptr, ptr %32, align 8, !tbaa !22
  %34 = getelementptr inbounds nuw %struct.CPValue, ptr %6, i32 0, i32 1
  %35 = load i32, ptr %34, align 4, !tbaa !122
  %36 = call ptr @lj_ctype_rawref(ptr noundef %33, i32 noundef %35)
  store ptr %36, ptr %5, align 8, !tbaa !32
  %37 = load ptr, ptr %5, align 8, !tbaa !32
  %38 = getelementptr inbounds nuw %struct.CType, ptr %37, i32 0, i32 0
  %39 = load i32, ptr %38, align 8, !tbaa !60
  %40 = lshr i32 %39, 28
  %41 = lshr i32 %40, 1
  %42 = icmp eq i32 %41, 1
  br i1 %42, label %46, label %43

43:                                               ; preds = %30
  %44 = load ptr, ptr %3, align 8, !tbaa !20
  %45 = load ptr, ptr %5, align 8, !tbaa !32
  call void @cp_err_badidx(ptr noundef %44, ptr noundef %45) #15
  unreachable

46:                                               ; preds = %30
  br label %47

47:                                               ; preds = %46, %15
  %48 = load ptr, ptr %3, align 8, !tbaa !20
  call void @cp_check(ptr noundef %48, i32 noundef 93)
  %49 = load ptr, ptr %4, align 8, !tbaa !129
  %50 = getelementptr inbounds nuw %struct.CPValue, ptr %49, i32 0, i32 0
  store i32 0, ptr %50, align 4, !tbaa !13
  call void @llvm.lifetime.end.p0(i64 8, ptr %6) #13
  br label %173

51:                                               ; preds = %11
  %52 = load ptr, ptr %3, align 8, !tbaa !20
  %53 = getelementptr inbounds nuw %struct.CPState, ptr %52, i32 0, i32 1
  %54 = load i32, ptr %53, align 4, !tbaa !56
  %55 = icmp eq i32 %54, 46
  br i1 %55, label %61, label %56

56:                                               ; preds = %51
  %57 = load ptr, ptr %3, align 8, !tbaa !20
  %58 = getelementptr inbounds nuw %struct.CPState, ptr %57, i32 0, i32 1
  %59 = load i32, ptr %58, align 4, !tbaa !56
  %60 = icmp eq i32 %59, 268
  br i1 %60, label %61, label %171

61:                                               ; preds = %56, %51
  call void @llvm.lifetime.start.p0(i64 4, ptr %7) #13
  call void @llvm.lifetime.start.p0(i64 8, ptr %8) #13
  %62 = load ptr, ptr %3, align 8, !tbaa !20
  %63 = getelementptr inbounds nuw %struct.CPState, ptr %62, i32 0, i32 8
  %64 = load ptr, ptr %63, align 8, !tbaa !22
  %65 = load ptr, ptr %4, align 8, !tbaa !129
  %66 = getelementptr inbounds nuw %struct.CPValue, ptr %65, i32 0, i32 1
  %67 = load i32, ptr %66, align 4, !tbaa !122
  %68 = call ptr @lj_ctype_rawref(ptr noundef %64, i32 noundef %67)
  store ptr %68, ptr %5, align 8, !tbaa !32
  %69 = load ptr, ptr %3, align 8, !tbaa !20
  %70 = getelementptr inbounds nuw %struct.CPState, ptr %69, i32 0, i32 1
  %71 = load i32, ptr %70, align 4, !tbaa !56
  %72 = icmp eq i32 %71, 268
  br i1 %72, label %73, label %92

73:                                               ; preds = %61
  %74 = load ptr, ptr %5, align 8, !tbaa !32
  %75 = getelementptr inbounds nuw %struct.CType, ptr %74, i32 0, i32 0
  %76 = load i32, ptr %75, align 8, !tbaa !60
  %77 = lshr i32 %76, 28
  %78 = lshr i32 %77, 1
  %79 = icmp eq i32 %78, 1
  br i1 %79, label %83, label %80

80:                                               ; preds = %73
  %81 = load ptr, ptr %3, align 8, !tbaa !20
  %82 = load ptr, ptr %5, align 8, !tbaa !32
  call void @cp_err_badidx(ptr noundef %81, ptr noundef %82) #15
  unreachable

83:                                               ; preds = %73
  %84 = load ptr, ptr %3, align 8, !tbaa !20
  %85 = getelementptr inbounds nuw %struct.CPState, ptr %84, i32 0, i32 8
  %86 = load ptr, ptr %85, align 8, !tbaa !22
  %87 = load ptr, ptr %5, align 8, !tbaa !32
  %88 = getelementptr inbounds nuw %struct.CType, ptr %87, i32 0, i32 0
  %89 = load i32, ptr %88, align 8, !tbaa !60
  %90 = and i32 %89, 65535
  %91 = call ptr @lj_ctype_rawref(ptr noundef %86, i32 noundef %90)
  store ptr %91, ptr %5, align 8, !tbaa !32
  br label %92

92:                                               ; preds = %83, %61
  %93 = load ptr, ptr %3, align 8, !tbaa !20
  %94 = call i32 @cp_next(ptr noundef %93)
  %95 = load ptr, ptr %3, align 8, !tbaa !20
  %96 = getelementptr inbounds nuw %struct.CPState, ptr %95, i32 0, i32 1
  %97 = load i32, ptr %96, align 4, !tbaa !56
  %98 = icmp ne i32 %97, 256
  br i1 %98, label %99, label %101

99:                                               ; preds = %92
  %100 = load ptr, ptr %3, align 8, !tbaa !20
  call void @cp_err_token(ptr noundef %100, i32 noundef 256) #15
  unreachable

101:                                              ; preds = %92
  %102 = load ptr, ptr %5, align 8, !tbaa !32
  %103 = getelementptr inbounds nuw %struct.CType, ptr %102, i32 0, i32 0
  %104 = load i32, ptr %103, align 8, !tbaa !60
  %105 = lshr i32 %104, 28
  %106 = icmp eq i32 %105, 1
  br i1 %106, label %107, label %128

107:                                              ; preds = %101
  %108 = load ptr, ptr %5, align 8, !tbaa !32
  %109 = getelementptr inbounds nuw %struct.CType, ptr %108, i32 0, i32 1
  %110 = load i32, ptr %109, align 4, !tbaa !105
  %111 = icmp eq i32 %110, -1
  br i1 %111, label %128, label %112

112:                                              ; preds = %107
  %113 = load ptr, ptr %3, align 8, !tbaa !20
  %114 = getelementptr inbounds nuw %struct.CPState, ptr %113, i32 0, i32 8
  %115 = load ptr, ptr %114, align 8, !tbaa !22
  %116 = load ptr, ptr %5, align 8, !tbaa !32
  %117 = load ptr, ptr %3, align 8, !tbaa !20
  %118 = getelementptr inbounds nuw %struct.CPState, ptr %117, i32 0, i32 3
  %119 = load ptr, ptr %118, align 8, !tbaa !59
  %120 = call ptr @lj_ctype_getfieldq(ptr noundef %115, ptr noundef %116, ptr noundef %119, ptr noundef %7, ptr noundef null)
  store ptr %120, ptr %8, align 8, !tbaa !32
  %121 = icmp ne ptr %120, null
  br i1 %121, label %122, label %128

122:                                              ; preds = %112
  %123 = load ptr, ptr %8, align 8, !tbaa !32
  %124 = getelementptr inbounds nuw %struct.CType, ptr %123, i32 0, i32 0
  %125 = load i32, ptr %124, align 8, !tbaa !60
  %126 = lshr i32 %125, 28
  %127 = icmp eq i32 %126, 10
  br i1 %127, label %128, label %153

128:                                              ; preds = %122, %112, %107, %101
  call void @llvm.lifetime.start.p0(i64 8, ptr %9) #13
  %129 = load ptr, ptr %3, align 8, !tbaa !20
  %130 = getelementptr inbounds nuw %struct.CPState, ptr %129, i32 0, i32 8
  %131 = load ptr, ptr %130, align 8, !tbaa !22
  %132 = getelementptr inbounds nuw %struct.CTState, ptr %131, i32 0, i32 3
  %133 = load ptr, ptr %132, align 8, !tbaa !134
  %134 = load ptr, ptr %5, align 8, !tbaa !32
  %135 = load ptr, ptr %3, align 8, !tbaa !20
  %136 = getelementptr inbounds nuw %struct.CPState, ptr %135, i32 0, i32 8
  %137 = load ptr, ptr %136, align 8, !tbaa !22
  %138 = getelementptr inbounds nuw %struct.CTState, ptr %137, i32 0, i32 0
  %139 = load ptr, ptr %138, align 8, !tbaa !88
  %140 = ptrtoint ptr %134 to i64
  %141 = ptrtoint ptr %139 to i64
  %142 = sub i64 %140, %141
  %143 = sdiv exact i64 %142, 24
  %144 = trunc i64 %143 to i32
  %145 = call ptr @lj_ctype_repr(ptr noundef %133, i32 noundef %144, ptr noundef null)
  store ptr %145, ptr %9, align 8, !tbaa !4
  %146 = load ptr, ptr %3, align 8, !tbaa !20
  %147 = load ptr, ptr %9, align 8, !tbaa !4
  %148 = getelementptr inbounds %struct.GCstr, ptr %147, i64 1
  %149 = load ptr, ptr %3, align 8, !tbaa !20
  %150 = getelementptr inbounds nuw %struct.CPState, ptr %149, i32 0, i32 3
  %151 = load ptr, ptr %150, align 8, !tbaa !59
  %152 = getelementptr inbounds %struct.GCstr, ptr %151, i64 1
  call void (ptr, i32, i32, ...) @cp_errmsg(ptr noundef %146, i32 noundef 0, i32 noundef 3480, ptr noundef %148, ptr noundef %152) #15
  unreachable

153:                                              ; preds = %122
  %154 = load ptr, ptr %8, align 8, !tbaa !32
  store ptr %154, ptr %5, align 8, !tbaa !32
  %155 = load ptr, ptr %5, align 8, !tbaa !32
  %156 = getelementptr inbounds nuw %struct.CType, ptr %155, i32 0, i32 0
  %157 = load i32, ptr %156, align 8, !tbaa !60
  %158 = lshr i32 %157, 28
  %159 = icmp eq i32 %158, 11
  br i1 %159, label %160, label %164

160:                                              ; preds = %153
  %161 = load ptr, ptr %5, align 8, !tbaa !32
  %162 = getelementptr inbounds nuw %struct.CType, ptr %161, i32 0, i32 1
  %163 = load i32, ptr %162, align 4, !tbaa !105
  br label %165

164:                                              ; preds = %153
  br label %165

165:                                              ; preds = %164, %160
  %166 = phi i32 [ %163, %160 ], [ 0, %164 ]
  %167 = load ptr, ptr %4, align 8, !tbaa !129
  %168 = getelementptr inbounds nuw %struct.CPValue, ptr %167, i32 0, i32 0
  store i32 %166, ptr %168, align 4, !tbaa !13
  %169 = load ptr, ptr %3, align 8, !tbaa !20
  %170 = call i32 @cp_next(ptr noundef %169)
  call void @llvm.lifetime.end.p0(i64 8, ptr %8) #13
  call void @llvm.lifetime.end.p0(i64 4, ptr %7) #13
  br label %172

171:                                              ; preds = %56
  store i32 1, ptr %10, align 4
  br label %180

172:                                              ; preds = %165
  br label %173

173:                                              ; preds = %172, %47
  %174 = load ptr, ptr %5, align 8, !tbaa !32
  %175 = getelementptr inbounds nuw %struct.CType, ptr %174, i32 0, i32 0
  %176 = load i32, ptr %175, align 8, !tbaa !60
  %177 = and i32 %176, 65535
  %178 = load ptr, ptr %4, align 8, !tbaa !129
  %179 = getelementptr inbounds nuw %struct.CPValue, ptr %178, i32 0, i32 1
  store i32 %177, ptr %179, align 4, !tbaa !122
  store i32 0, ptr %10, align 4
  br label %180

180:                                              ; preds = %173, %171
  call void @llvm.lifetime.end.p0(i64 8, ptr %5) #13
  %181 = load i32, ptr %10, align 4
  switch i32 %181, label %184 [
    i32 0, label %182
    i32 1, label %183
  ]

182:                                              ; preds = %180
  br label %11

183:                                              ; preds = %180
  ret void

184:                                              ; preds = %180
  unreachable
}