; Function Attrs: nounwind uwtable
define internal fastcc void @cp_expr_postfix(ptr noundef %0, ptr noundef nonnull captures(none) %1) unnamed_addr #2 {
  %3 = alloca %struct.CPValue, align 4
  %4 = alloca i32, align 4
  %5 = getelementptr inbounds nuw i8, ptr %0, i64 4
  %6 = getelementptr inbounds nuw i8, ptr %0, i64 80
  %7 = getelementptr inbounds nuw i8, ptr %1, i64 4
  %8 = getelementptr inbounds nuw i8, ptr %0, i64 16
  %9 = getelementptr inbounds nuw i8, ptr %0, i64 108
  %10 = getelementptr inbounds nuw i8, ptr %3, i64 4
  br label %11

11:                                               ; preds = %94, %2
  %12 = load i32, ptr %5, align 4, !tbaa !64
  switch i32 %12, label %97 [
    i32 91, label %13
    i32 46, label %42
    i32 268, label %42
  ]

13:                                               ; preds = %11
  %14 = call fastcc i32 @cp_next(ptr noundef nonnull %0)
  call void @llvm.lifetime.start.p0(i64 8, ptr nonnull %3) #15
  %15 = load i32, ptr %9, align 4, !tbaa !58
  %16 = add nsw i32 %15, 1
  store i32 %16, ptr %9, align 4, !tbaa !58
  %17 = icmp sgt i32 %15, 19
  br i1 %17, label %._crit_edge, label %cp_expr_sub.exit

._crit_edge:                                      ; preds = %13, %cp_opt.exit54
  call fastcc void @cp_err(ptr noundef nonnull %0, i32 noundef 2216) #16
  unreachable

cp_expr_sub.exit:                                 ; preds = %13, %cp_opt.exit54
  call fastcc void @cp_expr_prefix(ptr noundef nonnull %0, ptr noundef nonnull %3)
  call fastcc void @cp_expr_postfix(ptr noundef nonnull %0, ptr noundef nonnull %3)
  %18 = load i32, ptr %9, align 4, !tbaa !58
  %19 = add nsw i32 %18, -1
  store i32 %19, ptr %9, align 4, !tbaa !58
  call fastcc void @cp_expr_infix(ptr noundef nonnull %0, ptr noundef nonnull %3, i32 noundef 0)
  %20 = load i32, ptr %5, align 4, !tbaa !64
  %21 = icmp eq i32 %20, 44
  br i1 %21, label %cp_opt.exit54, label %cp_expr_comma.exit

cp_opt.exit54:                                    ; preds = %cp_expr_sub.exit
  %22 = call fastcc i32 @cp_next(ptr noundef nonnull %0)
  %23 = load i32, ptr %9, align 4, !tbaa !58
  %24 = add nsw i32 %23, 1
  store i32 %24, ptr %9, align 4, !tbaa !58
  %25 = icmp sgt i32 %23, 19
  br i1 %25, label %._crit_edge, label %cp_expr_sub.exit, !llvm.loop !127

cp_expr_comma.exit:                               ; preds = %cp_expr_sub.exit
  %26 = load ptr, ptr %6, align 8, !tbaa !14
  %27 = load i32, ptr %7, align 4, !tbaa !114
  %28 = call ptr @lj_ctype_rawref(ptr noundef %26, i32 noundef %27) #15
  %29 = load i32, ptr %28, align 8, !tbaa !71
  %.mask50 = and i32 %29, -536870912
  %30 = icmp eq i32 %.mask50, 536870912
  br i1 %30, label %38, label %31

31:                                               ; preds = %cp_expr_comma.exit
  %32 = load ptr, ptr %6, align 8, !tbaa !14
  %33 = load i32, ptr %10, align 4, !tbaa !114
  %34 = call ptr @lj_ctype_rawref(ptr noundef %32, i32 noundef %33) #15
  %35 = load i32, ptr %34, align 8, !tbaa !71
  %.mask51 = and i32 %35, -536870912
  %36 = icmp eq i32 %.mask51, 536870912
  br i1 %36, label %38, label %37

37:                                               ; preds = %31
  call fastcc void @cp_err_badidx(ptr noundef nonnull %0, ptr noundef nonnull %34) #16
  unreachable

38:                                               ; preds = %31, %cp_expr_comma.exit
  %.043 = phi ptr [ %28, %cp_expr_comma.exit ], [ %34, %31 ]
  %39 = load i32, ptr %5, align 4, !tbaa !64
  %.not.i52 = icmp eq i32 %39, 93
  br i1 %.not.i52, label %cp_check.exit, label %40

40:                                               ; preds = %38
  call fastcc void @cp_err_token(ptr noundef nonnull %0, i32 noundef 93) #16
  unreachable

cp_check.exit:                                    ; preds = %38
  %41 = call fastcc i32 @cp_next(ptr noundef nonnull %0)
  store i32 0, ptr %1, align 4, !tbaa !4
  call void @llvm.lifetime.end.p0(i64 8, ptr nonnull %3) #15
  br label %94

42:                                               ; preds = %11, %11
  call void @llvm.lifetime.start.p0(i64 4, ptr nonnull %4) #15
  %43 = load ptr, ptr %6, align 8, !tbaa !14
  %44 = load i32, ptr %7, align 4, !tbaa !114
  %45 = call ptr @lj_ctype_rawref(ptr noundef %43, i32 noundef %44) #15
  %46 = load i32, ptr %5, align 4, !tbaa !64
  %47 = icmp eq i32 %46, 268
  br i1 %47, label %48, label %56

48:                                               ; preds = %42
  %49 = load i32, ptr %45, align 8, !tbaa !71
  %.mask = and i32 %49, -536870912
  %50 = icmp eq i32 %.mask, 536870912
  br i1 %50, label %52, label %51

51:                                               ; preds = %48
  call fastcc void @cp_err_badidx(ptr noundef nonnull %0, ptr noundef nonnull %45) #16
  unreachable

52:                                               ; preds = %48
  %53 = load ptr, ptr %6, align 8, !tbaa !14
  %54 = and i32 %49, 65535
  %55 = call ptr @lj_ctype_rawref(ptr noundef %53, i32 noundef %54) #15
  br label %56

56:                                               ; preds = %52, %42
  %.2 = phi ptr [ %55, %52 ], [ %45, %42 ]
  %57 = call fastcc i32 @cp_next(ptr noundef nonnull %0)
  %58 = load i32, ptr %5, align 4, !tbaa !64
  %.not47 = icmp eq i32 %58, 256
  br i1 %.not47, label %60, label %59

59:                                               ; preds = %56
  call fastcc void @cp_err_token(ptr noundef nonnull %0, i32 noundef 256) #16
  unreachable

60:                                               ; preds = %56
  %61 = load i32, ptr %.2, align 8, !tbaa !71
  %.mask48 = and i32 %61, -268435456
  %62 = icmp eq i32 %.mask48, 268435456
  br i1 %62, label %63, label %74

63:                                               ; preds = %60
  %64 = getelementptr inbounds nuw i8, ptr %.2, i64 4
  %65 = load i32, ptr %64, align 4, !tbaa !81
  %66 = icmp eq i32 %65, -1
  br i1 %66, label %74, label %67

67:                                               ; preds = %63
  %68 = load ptr, ptr %6, align 8, !tbaa !14
  %69 = load ptr, ptr %8, align 8, !tbaa !69
  %70 = call ptr @lj_ctype_getfieldq(ptr noundef %68, ptr noundef nonnull %.2, ptr noundef %69, ptr noundef nonnull %4, ptr noundef null) #15
  %.not49 = icmp eq ptr %70, null
  br i1 %.not49, label %74, label %71

71:                                               ; preds = %67
  %72 = load i32, ptr %70, align 8, !tbaa !71
  %73 = lshr i32 %72, 28
  switch i32 %73, label %91 [
    i32 10, label %74
    i32 11, label %88
  ]

74:                                               ; preds = %71, %67, %63, %60
  %75 = load ptr, ptr %6, align 8, !tbaa !14
  %76 = getelementptr inbounds nuw i8, ptr %75, i64 16
  %77 = load ptr, ptr %76, align 8, !tbaa !129
  %78 = load ptr, ptr %75, align 8, !tbaa !74
  %79 = ptrtoint ptr %.2 to i64
  %80 = ptrtoint ptr %78 to i64
  %81 = sub i64 %79, %80
  %82 = sdiv exact i64 %81, 24
  %83 = trunc i64 %82 to i32
  %84 = call ptr @lj_ctype_repr(ptr noundef %77, i32 noundef %83, ptr noundef null) #15
  %85 = getelementptr inbounds nuw i8, ptr %84, i64 24
  %86 = load ptr, ptr %8, align 8, !tbaa !69
  %87 = getelementptr inbounds nuw i8, ptr %86, i64 24
  call void (ptr, i32, i32, ...) @cp_errmsg(ptr noundef nonnull %0, i32 noundef 0, i32 noundef 3480, ptr noundef nonnull %85, ptr noundef nonnull %87) #16
  unreachable

88:                                               ; preds = %71
  %89 = getelementptr inbounds nuw i8, ptr %70, i64 4
  %90 = load i32, ptr %89, align 4, !tbaa !81
  br label %91

91:                                               ; preds = %71, %88
  %92 = phi i32 [ %90, %88 ], [ 0, %71 ]
  store i32 %92, ptr %1, align 4, !tbaa !4
  %93 = call fastcc i32 @cp_next(ptr noundef nonnull %0)
  call void @llvm.lifetime.end.p0(i64 4, ptr nonnull %4) #15
  br label %94

94:                                               ; preds = %cp_check.exit, %91
  %.1 = phi ptr [ %.043, %cp_check.exit ], [ %70, %91 ]
  %95 = load i32, ptr %.1, align 8, !tbaa !71
  %96 = and i32 %95, 65535
  store i32 %96, ptr %7, align 4, !tbaa !114
  br label %11

97:                                               ; preds = %11
  ret void
}